; Function Attrs: nounwind uwtable
define void @duckdb_je_hpa_shard_stats_accum(ptr noundef %0, ptr noundef %1) local_unnamed_addr #1 {
  tail call void @duckdb_je_psset_stats_accum(ptr noundef %0, ptr noundef %1) #8
  %3 = getelementptr inbounds nuw i8, ptr %0, i64 3168
  %4 = getelementptr inbounds nuw i8, ptr %1, i64 3168
  %5 = load i64, ptr %4, align 8, !tbaa !87
  %6 = load i64, ptr %3, align 8, !tbaa !87
  %7 = add i64 %6, %5
  store i64 %7, ptr %3, align 8, !tbaa !87
  %8 = getelementptr inbounds nuw i8, ptr %1, i64 3176
  %9 = load i64, ptr %8, align 8, !tbaa !88
  %10 = getelementptr inbounds nuw i8, ptr %0, i64 3176
  %11 = load i64, ptr %10, align 8, !tbaa !88
  %12 = add i64 %11, %9
  store i64 %12, ptr %10, align 8, !tbaa !88
  %13 = getelementptr inbounds nuw i8, ptr %1, i64 3184
  %14 = load i64, ptr %13, align 8, !tbaa !89
  %15 = getelementptr inbounds nuw i8, ptr %0, i64 3184
  %16 = load i64, ptr %15, align 8, !tbaa !89
  %17 = add i64 %16, %14
  store i64 %17, ptr %15, align 8, !tbaa !89
  %18 = getelementptr inbounds nuw i8, ptr %1, i64 3192
  %19 = load i64, ptr %18, align 8, !tbaa !90
  %20 = getelementptr inbounds nuw i8, ptr %0, i64 3192
  %21 = load i64, ptr %20, align 8, !tbaa !90
  %22 = add i64 %21, %19
  store i64 %22, ptr %20, align 8, !tbaa !90
  ret void
}